Certificate:
    Data:
        Version: 3 (0x2)
        Serial Number:
            2f:cb:06:24:3e:39:e5:99:a9:10:63:e8:5d:c2:d0:48
        Signature Algorithm: ecdsa-with-SHA512
        Issuer: CN=pki.rma-dev.ru
        Validity
            Not Before: Jun 23 21:44:07 2025 GMT
            Not After : Sep 26 21:44:07 2027 GMT
        Subject: CN=windows
        Subject Public Key Info:
            Public Key Algorithm: rsaEncryption
                Public-Key: (2048 bit)
                Modulus:
                    00:c2:c5:78:2f:98:76:e5:02:98:eb:94:fc:29:8e:
                    3b:39:6a:4b:39:b0:6e:ae:ce:72:1b:55:79:b9:78:
                    03:35:60:4e:59:e0:e7:30:7c:59:ed:24:ed:7c:b6:
                    99:33:21:75:79:29:31:bf:30:ba:22:8f:a4:f3:9a:
                    a1:ad:a8:a0:59:1a:1e:b1:9b:14:d6:a8:b5:3b:97:
                    32:88:ab:62:b2:9b:53:18:40:97:78:b7:76:94:5f:
                    a6:a2:4d:cf:c6:e1:22:c2:a3:d2:62:ac:02:e1:e8:
                    92:bc:0e:3c:67:4a:cc:37:a0:10:b5:16:88:55:2e:
                    99:83:55:b7:65:00:1a:8c:92:fe:2b:2e:f1:1b:8c:
                    15:ed:42:cf:2d:5b:20:63:66:d2:54:b2:c0:4b:fe:
                    4a:f2:5f:9d:fa:93:48:51:f6:35:44:07:fb:48:9e:
                    02:fe:d3:16:22:d6:51:4c:c3:b4:95:7a:a9:d4:ef:
                    81:8a:5d:1a:fa:69:71:a6:fa:de:53:ad:98:0a:13:
                    28:ca:0d:3c:a0:93:81:26:88:e9:c0:3e:4f:85:18:
                    80:d0:02:b8:16:95:dc:a3:d5:56:da:a2:67:81:af:
                    fb:08:9c:de:e2:0b:cb:2a:6d:3f:c0:a9:fe:6e:05:
                    d9:3f:32:c2:26:18:83:e7:12:aa:42:55:cd:72:5f:
                    94:1d
                Exponent: 65537 (0x10001)
        X509v3 extensions:
            X509v3 Basic Constraints: 
                CA:FALSE
            X509v3 Subject Key Identifier: 
                C8:3F:A5:5F:53:09:73:7F:08:3F:28:4C:E9:CE:D9:35:14:E6:76:86
            X509v3 Authority Key Identifier: 
                keyid:0E:BB:36:91:67:85:CF:1F:94:32:E6:5D:F1:03:74:0F:D0:85:FD:A0
                DirName:/CN=pki.rma-dev.ru
                serial:75:17:B1:6E:70:85:63:F6:92:D3:15:69:38:2B:1C:9A:45:B5:50:7C
            X509v3 Extended Key Usage: 
                TLS Web Client Authentication
            X509v3 Key Usage: 
                Digital Signature
    Signature Algorithm: ecdsa-with-SHA512
    Signature Value:
        30:66:02:31:00:e2:fe:c5:db:93:36:bd:42:a7:f0:02:13:39:
        2b:3a:71:48:35:42:47:84:2a:e1:78:3b:29:cb:7d:07:57:7f:
        06:73:ba:2f:00:13:50:2d:02:39:95:9c:59:ee:7d:4c:6d:02:
        31:00:db:97:fc:6a:cb:d1:1a:51:14:49:75:ea:94:8c:a9:42:
        f5:b4:d1:af:bd:47:a6:35:08:c6:cf:90:09:36:63:c5:f7:b9:
        16:8c:de:6c:45:91:15:42:3c:07:88:51:98:ae
-----BEGIN CERTIFICATE-----
MIICuzCCAkCgAwIBAgIQL8sGJD455ZmpEGPoXcLQSDAKBggqhkjOPQQDBDAZMRcw
FQYDVQQDDA5wa2kucm1hLWRldi5ydTAeFw0yNTA2MjMyMTQ0MDdaFw0yNzA5MjYy
MTQ0MDdaMBIxEDAOBgNVBAMMB3dpbmRvd3MwggEiMA0GCSqGSIb3DQEBAQUAA4IB
DwAwggEKAoIBAQDCxXgvmHblApjrlPwpjjs5aks5sG6uznIbVXm5eAM1YE5Z4Ocw
fFntJO18tpkzIXV5KTG/MLoij6TzmqGtqKBZGh6xmxTWqLU7lzKIq2Kym1MYQJd4
t3aUX6aiTc/G4SLCo9JirALh6JK8DjxnSsw3oBC1FohVLpmDVbdlABqMkv4rLvEb
jBXtQs8tWyBjZtJUssBL/kryX536k0hR9jVEB/tIngL+0xYi1lFMw7SVeqnU74GK
XRr6aXGm+t5TrZgKEyjKDTygk4EmiOnAPk+FGIDQArgWldyj1VbaomeBr/sInN7i
C8sqbT/Aqf5uBdk/MsImGIPnEqpCVc1yX5QdAgMBAAGjgaUwgaIwCQYDVR0TBAIw
ADAdBgNVHQ4EFgQUyD+lX1MJc38IPyhM6c7ZNRTmdoYwVAYDVR0jBE0wS4AUDrs2
kWeFzx+UMuZd8QN0D9CF/aChHaQbMBkxFzAVBgNVBAMMDnBraS5ybWEtZGV2LnJ1
ghR1F7FucIVj9pLTFWk4KxyaRbVQfDATBgNVHSUEDDAKBggrBgEFBQcDAjALBgNV
HQ8EBAMCB4AwCgYIKoZIzj0EAwQDaQAwZgIxAOL+xduTNr1Cp/ACEzkrOnFINUJH
hCrheDspy30HV38Gc7ovABNQLQI5lZxZ7n1MbQIxANuX/GrL0RpRFEl16pSMqUL1
tNGvvUemNQjGz5AJNmPF97kWjN5sRZEVQjwHiFGYrg==
-----END CERTIFICATE-----
